; Function Attrs: mustprogress nofree nounwind uwtable
define dso_local void @_ZN3ozz2io4FileD2Ev(ptr noundef nonnull align 8 captures(none) dereferenceable(16) initializes((0, 8)) %0) unnamed_addr #0 align 2 personality ptr @__gxx_personality_v0 {
  store ptr getelementptr inbounds nuw inrange(-16, 64) (i8, ptr @_ZTVN3ozz2io4FileE, i64 16), ptr %0, align 8, !tbaa !4
  %2 = getelementptr inbounds nuw i8, ptr %0, i64 8
  %3 = load ptr, ptr %2, align 8, !tbaa !7
  %.not.i = icmp eq ptr %3, null
  br i1 %.not.i, label %_ZN3ozz2io4File5CloseEv.exit, label %4

4:                                                ; preds = %1
  %5 = tail call i32 @fclose(ptr noundef nonnull %3)
  store ptr null, ptr %2, align 8, !tbaa !7
  br label %_ZN3ozz2io4File5CloseEv.exit

_ZN3ozz2io4File5CloseEv.exit:                     ; preds = %4, %1
  ret void
}